target datalayout = "e-m:e-p270:32:32-p271:32:32-p272:64:64-i64:64-i128:128-f80:128-n8:16:32:64-S128"
target triple = "x86_64-pc-linux-gnu"

%struct.__va_list_tag = type { i32, i32, ptr, ptr }
%struct.sqlite3_vtab = type { ptr, i32, ptr }
%struct.sqlite3_vtab_cursor = type { ptr }
%struct.ZipfileCsr = type { %struct.sqlite3_vtab_cursor, i64, i8, i8, ptr, i64, %struct.ZipfileEOCD, ptr, ptr, ptr }
%struct.ZipfileEOCD = type { i16, i16, i16, i16, i32, i32 }

; Function Attrs: nounwind uwtable
define internal void @zipfileCursorErr(ptr noundef %0, ptr noundef %1, ...) #0 {
  %3 = alloca ptr, align 8
  %4 = alloca ptr, align 8
  %5 = alloca [1 x %struct.__va_list_tag], align 16
  store ptr %0, ptr %3, align 8, !tbaa !791
  store ptr %1, ptr %4, align 8, !tbaa !36
  call void @llvm.lifetime.start.p0(i64 24, ptr %5) #14
  %6 = getelementptr inbounds [1 x %struct.__va_list_tag], ptr %5, i64 0, i64 0
  call void @llvm.va_start.p0(ptr %6)
  %7 = load ptr, ptr %3, align 8, !tbaa !791
  %8 = getelementptr inbounds nuw %struct.ZipfileCsr, ptr %7, i32 0, i32 0
  %9 = getelementptr inbounds nuw %struct.sqlite3_vtab_cursor, ptr %8, i32 0, i32 0
  %10 = load ptr, ptr %9, align 8, !tbaa !798
  %11 = getelementptr inbounds nuw %struct.sqlite3_vtab, ptr %10, i32 0, i32 2
  %12 = load ptr, ptr %11, align 8, !tbaa !633
  call void @sqlite3_free(ptr noundef %12)
  %13 = load ptr, ptr %4, align 8, !tbaa !36
  %14 = getelementptr inbounds [1 x %struct.__va_list_tag], ptr %5, i64 0, i64 0
  %15 = call ptr @sqlite3_vmprintf(ptr noundef %13, ptr noundef %14)
  %16 = load ptr, ptr %3, align 8, !tbaa !791
  %17 = getelementptr inbounds nuw %struct.ZipfileCsr, ptr %16, i32 0, i32 0
  %18 = getelementptr inbounds nuw %struct.sqlite3_vtab_cursor, ptr %17, i32 0, i32 0
  %19 = load ptr, ptr %18, align 8, !tbaa !798
  %20 = getelementptr inbounds nuw %struct.sqlite3_vtab, ptr %19, i32 0, i32 2
  store ptr %15, ptr %20, align 8, !tbaa !633
  %21 = getelementptr inbounds [1 x %struct.__va_list_tag], ptr %5, i64 0, i64 0
  call void @llvm.va_end.p0(ptr %21)
  call void @llvm.lifetime.end.p0(i64 24, ptr %5) #14
  ret void
}