; Function Attrs: nounwind uwtable
define internal void @zipfileCursorErr(ptr noundef readonly captures(none) %0, ptr noundef %1, ...) unnamed_addr #2 {
  %3 = alloca [1 x %struct.__va_list_tag], align 16
  call void @llvm.lifetime.start.p0(i64 24, ptr nonnull %3) #43
  call void @llvm.va_start.p0(ptr nonnull %3)
  %4 = load ptr, ptr %0, align 8, !tbaa !844
  %5 = getelementptr inbounds nuw i8, ptr %4, i64 16
  %6 = load ptr, ptr %5, align 8, !tbaa !735
  call void @sqlite3_free(ptr noundef %6) #43
  %7 = call ptr @sqlite3_vmprintf(ptr noundef %1, ptr noundef nonnull %3) #43
  %8 = load ptr, ptr %0, align 8, !tbaa !844
  %9 = getelementptr inbounds nuw i8, ptr %8, i64 16
  store ptr %7, ptr %9, align 8, !tbaa !735
  call void @llvm.va_end.p0(ptr nonnull %3)
  call void @llvm.lifetime.end.p0(i64 24, ptr nonnull %3) #43
  ret void
}